target datalayout = "e-m:e-p270:32:32-p271:32:32-p272:64:64-i64:64-i128:128-f80:128-n8:16:32:64-S128"
target triple = "x86_64-pc-linux-gnu"

%"class.OpenColorIO_v2_5dev::OpCPU" = type { ptr }
%"class.OpenColorIO_v2_5dev::Renderer_LIN_TO_GAMMA_LOG" = type { %"class.OpenColorIO_v2_5dev::OpCPU", float, float, %"struct.OpenColorIO_v2_5dev::Renderer_LIN_TO_GAMMA_LOG::GammaSegment", %"struct.OpenColorIO_v2_5dev::Renderer_LIN_TO_GAMMA_LOG::LogSegment" }
%"struct.OpenColorIO_v2_5dev::Renderer_LIN_TO_GAMMA_LOG::GammaSegment" = type { float, float, float }
%"struct.OpenColorIO_v2_5dev::Renderer_LIN_TO_GAMMA_LOG::LogSegment" = type { float, float, float, float, float }
%"class.OpenColorIO_v2_5dev::Renderer_GAMMA_LOG_TO_LIN" = type { %"class.OpenColorIO_v2_5dev::Renderer_LIN_TO_GAMMA_LOG", float, float }

; Function Attrs: mustprogress nounwind uwtable
define linkonce_odr noundef float @_ZSt8copysignff(float noundef %0, float noundef %1) #4 comdat {
  %3 = alloca float, align 4
  %4 = alloca float, align 4
  store float %0, ptr %3, align 4, !tbaa !31
  store float %1, ptr %4, align 4, !tbaa !31
  %5 = load float, ptr %3, align 4, !tbaa !31
  %6 = load float, ptr %4, align 4, !tbaa !31
  %7 = call float @llvm.copysign.f32(float %5, float %6)
  ret float %7
}

; Function Attrs: inlinehint mustprogress nounwind uwtable
define linkonce_odr noundef float @_ZSt3expf(float noundef %0) #10 comdat {
  %2 = alloca float, align 4
  store float %0, ptr %2, align 4, !tbaa !31
  %3 = load float, ptr %2, align 4, !tbaa !31
  %4 = call float @expf(float noundef %3) #3, !tbaa !34
  ret float %4
}

; Function Attrs: inlinehint mustprogress nounwind uwtable
define linkonce_odr noundef float @_ZSt3powff(float noundef %0, float noundef %1) #10 comdat {
  %3 = alloca float, align 4
  %4 = alloca float, align 4
  store float %0, ptr %3, align 4, !tbaa !31
  store float %1, ptr %4, align 4, !tbaa !31
  %5 = load float, ptr %3, align 4, !tbaa !31
  %6 = load float, ptr %4, align 4, !tbaa !31
  %7 = call float @powf(float noundef %5, float noundef %6) #3, !tbaa !34
  ret float %7
}

; Function Attrs: inlinehint mustprogress nounwind uwtable
define linkonce_odr noundef float @_ZSt3absf(float noundef %0) #10 comdat {
  %2 = alloca float, align 4
  store float %0, ptr %2, align 4, !tbaa !31
  %3 = load float, ptr %2, align 4, !tbaa !31
  %4 = call float @llvm.fabs.f32(float %3)
  ret float %4
}

; Function Attrs: mustprogress uwtable
define hidden void @_ZNK19OpenColorIO_v2_5dev25Renderer_GAMMA_LOG_TO_LIN5applyEPKvPvl(ptr noundef nonnull align 8 dereferenceable(56) %0, ptr noundef %1, ptr noundef %2, i64 noundef %3) unnamed_addr #6 align 2 {
  %5 = alloca ptr, align 8
  %6 = alloca ptr, align 8
  %7 = alloca ptr, align 8
  %8 = alloca i64, align 8
  %9 = alloca ptr, align 8
  %10 = alloca ptr, align 8
  %11 = alloca i64, align 8
  %12 = alloca i32, align 4
  %13 = alloca i32, align 4
  %14 = alloca float, align 4
  %15 = alloca float, align 4
  %16 = alloca float, align 4
  %17 = alloca float, align 4
  store ptr %0, ptr %5, align 8, !tbaa !218
  store ptr %1, ptr %6, align 8, !tbaa !26
  store ptr %2, ptr %7, align 8, !tbaa !26
  store i64 %3, ptr %8, align 8, !tbaa !27
  %18 = load ptr, ptr %5, align 8
  call void @llvm.lifetime.start.p0(i64 8, ptr %9) #3
  %19 = load ptr, ptr %6, align 8, !tbaa !26
  store ptr %19, ptr %9, align 8, !tbaa !29
  call void @llvm.lifetime.start.p0(i64 8, ptr %10) #3
  %20 = load ptr, ptr %7, align 8, !tbaa !26
  store ptr %20, ptr %10, align 8, !tbaa !29
  call void @llvm.lifetime.start.p0(i64 8, ptr %11) #3
  store i64 0, ptr %11, align 8, !tbaa !27
  br label %21

21:                                               ; preds = %98, %4
  %22 = load i64, ptr %11, align 8, !tbaa !27
  %23 = load i64, ptr %8, align 8, !tbaa !27
  %24 = icmp slt i64 %22, %23
  br i1 %24, label %26, label %25

25:                                               ; preds = %21
  store i32 2, ptr %12, align 4
  call void @llvm.lifetime.end.p0(i64 8, ptr %11) #3
  br label %101

26:                                               ; preds = %21
  call void @llvm.lifetime.start.p0(i64 4, ptr %13) #3
  store i32 0, ptr %13, align 4, !tbaa !34
  br label %27

27:                                               ; preds = %89, %26
  %28 = load i32, ptr %13, align 4, !tbaa !34
  %29 = icmp slt i32 %28, 3
  br i1 %29, label %31, label %30

30:                                               ; preds = %27
  store i32 5, ptr %12, align 4
  call void @llvm.lifetime.end.p0(i64 4, ptr %13) #3
  br label %92

31:                                               ; preds = %27
  call void @llvm.lifetime.start.p0(i64 4, ptr %14) #3
  %32 = load ptr, ptr %9, align 8, !tbaa !29
  %33 = getelementptr inbounds nuw float, ptr %32, i32 1
  store ptr %33, ptr %9, align 8, !tbaa !29
  %34 = load float, ptr %32, align 4, !tbaa !31
  store float %34, ptr %14, align 4, !tbaa !31
  call void @llvm.lifetime.start.p0(i64 4, ptr %15) #3
  %35 = load float, ptr %14, align 4, !tbaa !31
  %36 = getelementptr inbounds nuw %"class.OpenColorIO_v2_5dev::Renderer_GAMMA_LOG_TO_LIN", ptr %18, i32 0, i32 2
  %37 = load float, ptr %36, align 4, !tbaa !222
  %38 = fsub float %35, %37
  store float %38, ptr %15, align 4, !tbaa !31
  call void @llvm.lifetime.start.p0(i64 4, ptr %16) #3
  %39 = load float, ptr %15, align 4, !tbaa !31
  %40 = call noundef float @_ZSt3absf(float noundef %39)
  %41 = getelementptr inbounds nuw %"class.OpenColorIO_v2_5dev::Renderer_GAMMA_LOG_TO_LIN", ptr %18, i32 0, i32 2
  %42 = load float, ptr %41, align 4, !tbaa !222
  %43 = fadd float %40, %42
  store float %43, ptr %16, align 4, !tbaa !31
  call void @llvm.lifetime.start.p0(i64 4, ptr %17) #3
  %44 = load float, ptr %16, align 4, !tbaa !31
  %45 = getelementptr inbounds nuw %"class.OpenColorIO_v2_5dev::Renderer_GAMMA_LOG_TO_LIN", ptr %18, i32 0, i32 1
  %46 = load float, ptr %45, align 8, !tbaa !220
  %47 = fcmp olt float %44, %46
  br i1 %47, label %48, label %63

48:                                               ; preds = %31
  %49 = load float, ptr %16, align 4, !tbaa !31
  %50 = getelementptr inbounds nuw %"class.OpenColorIO_v2_5dev::Renderer_LIN_TO_GAMMA_LOG", ptr %18, i32 0, i32 3
  %51 = getelementptr inbounds nuw %"struct.OpenColorIO_v2_5dev::Renderer_LIN_TO_GAMMA_LOG::GammaSegment", ptr %50, i32 0, i32 1
  %52 = load float, ptr %51, align 4, !tbaa !196
  %53 = fdiv float %49, %52
  %54 = getelementptr inbounds nuw %"class.OpenColorIO_v2_5dev::Renderer_LIN_TO_GAMMA_LOG", ptr %18, i32 0, i32 3
  %55 = getelementptr inbounds nuw %"struct.OpenColorIO_v2_5dev::Renderer_LIN_TO_GAMMA_LOG::GammaSegment", ptr %54, i32 0, i32 0
  %56 = load float, ptr %55, align 8, !tbaa !195
  %57 = fdiv float 1.000000e+00, %56
  %58 = call noundef float @_ZSt3powff(float noundef %53, float noundef %57)
  %59 = getelementptr inbounds nuw %"class.OpenColorIO_v2_5dev::Renderer_LIN_TO_GAMMA_LOG", ptr %18, i32 0, i32 3
  %60 = getelementptr inbounds nuw %"struct.OpenColorIO_v2_5dev::Renderer_LIN_TO_GAMMA_LOG::GammaSegment", ptr %59, i32 0, i32 2
  %61 = load float, ptr %60, align 8, !tbaa !197
  %62 = fsub float %58, %61
  store float %62, ptr %17, align 4, !tbaa !31
  br label %82

63:                                               ; preds = %31
  %64 = load float, ptr %16, align 4, !tbaa !31
  %65 = getelementptr inbounds nuw %"class.OpenColorIO_v2_5dev::Renderer_LIN_TO_GAMMA_LOG", ptr %18, i32 0, i32 4
  %66 = getelementptr inbounds nuw %"struct.OpenColorIO_v2_5dev::Renderer_LIN_TO_GAMMA_LOG::LogSegment", ptr %65, i32 0, i32 2
  %67 = load float, ptr %66, align 4, !tbaa !200
  %68 = fsub float %64, %67
  %69 = getelementptr inbounds nuw %"class.OpenColorIO_v2_5dev::Renderer_LIN_TO_GAMMA_LOG", ptr %18, i32 0, i32 4
  %70 = getelementptr inbounds nuw %"struct.OpenColorIO_v2_5dev::Renderer_LIN_TO_GAMMA_LOG::LogSegment", ptr %69, i32 0, i32 1
  %71 = load float, ptr %70, align 4, !tbaa !199
  %72 = fdiv float %68, %71
  %73 = call noundef float @_ZSt3expf(float noundef %72)
  %74 = getelementptr inbounds nuw %"class.OpenColorIO_v2_5dev::Renderer_LIN_TO_GAMMA_LOG", ptr %18, i32 0, i32 4
  %75 = getelementptr inbounds nuw %"struct.OpenColorIO_v2_5dev::Renderer_LIN_TO_GAMMA_LOG::LogSegment", ptr %74, i32 0, i32 4
  %76 = load float, ptr %75, align 4, !tbaa !202
  %77 = fsub float %73, %76
  %78 = getelementptr inbounds nuw %"class.OpenColorIO_v2_5dev::Renderer_LIN_TO_GAMMA_LOG", ptr %18, i32 0, i32 4
  %79 = getelementptr inbounds nuw %"struct.OpenColorIO_v2_5dev::Renderer_LIN_TO_GAMMA_LOG::LogSegment", ptr %78, i32 0, i32 3
  %80 = load float, ptr %79, align 4, !tbaa !201
  %81 = fdiv float %77, %80
  store float %81, ptr %17, align 4, !tbaa !31
  br label %82

82:                                               ; preds = %63, %48
  %83 = load float, ptr %17, align 4, !tbaa !31
  %84 = load float, ptr %15, align 4, !tbaa !31
  %85 = call noundef float @_ZSt8copysignff(float noundef 1.000000e+00, float noundef %84)
  %86 = fmul float %83, %85
  %87 = load ptr, ptr %10, align 8, !tbaa !29
  %88 = getelementptr inbounds nuw float, ptr %87, i32 1
  store ptr %88, ptr %10, align 8, !tbaa !29
  store float %86, ptr %87, align 4, !tbaa !31
  call void @llvm.lifetime.end.p0(i64 4, ptr %17) #3
  call void @llvm.lifetime.end.p0(i64 4, ptr %16) #3
  call void @llvm.lifetime.end.p0(i64 4, ptr %15) #3
  call void @llvm.lifetime.end.p0(i64 4, ptr %14) #3
  br label %89

89:                                               ; preds = %82
  %90 = load i32, ptr %13, align 4, !tbaa !34
  %91 = add nsw i32 %90, 1
  store i32 %91, ptr %13, align 4, !tbaa !34
  br label %27, !llvm.loop !223

92:                                               ; preds = %30
  %93 = load ptr, ptr %9, align 8, !tbaa !29
  %94 = getelementptr inbounds nuw float, ptr %93, i32 1
  store ptr %94, ptr %9, align 8, !tbaa !29
  %95 = load float, ptr %93, align 4, !tbaa !31
  %96 = load ptr, ptr %10, align 8, !tbaa !29
  %97 = getelementptr inbounds nuw float, ptr %96, i32 1
  store ptr %97, ptr %10, align 8, !tbaa !29
  store float %95, ptr %96, align 4, !tbaa !31
  br label %98

98:                                               ; preds = %92
  %99 = load i64, ptr %11, align 8, !tbaa !27
  %100 = add nsw i64 %99, 1
  store i64 %100, ptr %11, align 8, !tbaa !27
  br label %21, !llvm.loop !224

101:                                              ; preds = %25
  call void @llvm.lifetime.end.p0(i64 8, ptr %10) #3
  call void @llvm.lifetime.end.p0(i64 8, ptr %9) #3
  ret void
}