; Function Attrs: mustprogress nofree nounwind memory(write, argmem: readwrite) uwtable
define hidden void @_ZNK19OpenColorIO_v2_5dev25Renderer_GAMMA_LOG_TO_LIN5applyEPKvPvl(ptr noundef nonnull readonly align 8 captures(none) dereferenceable(56) %0, ptr noundef readonly captures(none) %1, ptr noundef writeonly captures(none) %2, i64 noundef %3) unnamed_addr #5 align 2 {
  %5 = icmp sgt i64 %3, 0
  br i1 %5, label %.preheader.lr.ph, label %._crit_edge

.preheader.lr.ph:                                 ; preds = %4
  %6 = getelementptr inbounds nuw i8, ptr %0, i64 52
  %7 = getelementptr inbounds nuw i8, ptr %0, i64 48
  %8 = getelementptr inbounds nuw i8, ptr %0, i64 36
  %9 = getelementptr inbounds nuw i8, ptr %0, i64 32
  %10 = getelementptr inbounds nuw i8, ptr %0, i64 44
  %11 = getelementptr inbounds nuw i8, ptr %0, i64 40
  %12 = getelementptr inbounds nuw i8, ptr %0, i64 16
  %13 = getelementptr inbounds nuw i8, ptr %0, i64 20
  %14 = getelementptr inbounds nuw i8, ptr %0, i64 24
  br label %.preheader

.preheader:                                       ; preds = %.preheader.lr.ph, %15
  %.01830 = phi ptr [ %1, %.preheader.lr.ph ], [ %16, %15 ]
  %.01929 = phi ptr [ %2, %.preheader.lr.ph ], [ %18, %15 ]
  %.02128 = phi i64 [ 0, %.preheader.lr.ph ], [ %19, %15 ]
  br label %20

._crit_edge:                                      ; preds = %15, %4
  ret void

15:                                               ; preds = %47
  %16 = getelementptr inbounds nuw i8, ptr %.127, i64 8
  %17 = load float, ptr %21, align 4, !tbaa !13
  %18 = getelementptr inbounds nuw i8, ptr %.12026, i64 8
  store float %17, ptr %50, align 4, !tbaa !13
  %19 = add nuw nsw i64 %.02128, 1
  %exitcond32.not = icmp eq i64 %19, %3
  br i1 %exitcond32.not, label %._crit_edge, label %.preheader, !llvm.loop !154

20:                                               ; preds = %.preheader, %47
  %.127 = phi ptr [ %.01830, %.preheader ], [ %21, %47 ]
  %.12026 = phi ptr [ %.01929, %.preheader ], [ %50, %47 ]
  %.02225 = phi i32 [ 0, %.preheader ], [ %51, %47 ]
  %21 = getelementptr inbounds nuw i8, ptr %.127, i64 4
  %22 = load float, ptr %.127, align 4, !tbaa !13
  %23 = load float, ptr %6, align 4, !tbaa !153
  %24 = fsub float %22, %23
  %25 = tail call noundef float @llvm.fabs.f32(float %24)
  %26 = fadd float %23, %25
  %27 = load float, ptr %7, align 8, !tbaa !151
  %28 = fcmp olt float %26, %27
  br i1 %28, label %29, label %37

29:                                               ; preds = %20
  %30 = load float, ptr %13, align 4, !tbaa !142
  %31 = fdiv float %26, %30
  %32 = load float, ptr %12, align 8, !tbaa !141
  %33 = fdiv float 1.000000e+00, %32
  %34 = tail call noundef float @powf(float noundef %31, float noundef %33) #28, !tbaa !14
  %35 = load float, ptr %14, align 8, !tbaa !143
  %36 = fsub float %34, %35
  br label %47

37:                                               ; preds = %20
  %38 = load float, ptr %8, align 4, !tbaa !146
  %39 = fsub float %26, %38
  %40 = load float, ptr %9, align 8, !tbaa !145
  %41 = fdiv float %39, %40
  %42 = tail call noundef float @expf(float noundef %41) #28, !tbaa !14
  %43 = load float, ptr %10, align 4, !tbaa !148
  %44 = fsub float %42, %43
  %45 = load float, ptr %11, align 8, !tbaa !147
  %46 = fdiv float %44, %45
  br label %47

47:                                               ; preds = %37, %29
  %.0 = phi float [ %36, %29 ], [ %46, %37 ]
  %48 = tail call noundef float @llvm.copysign.f32(float 1.000000e+00, float %24)
  %49 = fmul float %48, %.0
  %50 = getelementptr inbounds nuw i8, ptr %.12026, i64 4
  store float %49, ptr %.12026, align 4, !tbaa !13
  %51 = add nuw nsw i32 %.02225, 1
  %exitcond.not = icmp eq i32 %51, 3
  br i1 %exitcond.not, label %15, label %20, !llvm.loop !155
}